target datalayout = "e-m:e-p270:32:32-p271:32:32-p272:64:64-i64:64-i128:128-f80:128-n8:16:32:64-S128"
target triple = "x86_64-pc-linux-gnu"

%struct.bipbuf_t = type { i64, i32, i32, i32, i32, [0 x i8] }

; Function Attrs: nounwind uwtable
define dso_local void @bipbuf_init(ptr noundef %0, i32 noundef %1) #0 {
  %3 = alloca ptr, align 8
  %4 = alloca i32, align 4
  store ptr %0, ptr %3, align 8, !tbaa !4
  store i32 %1, ptr %4, align 4, !tbaa !8
  %5 = load ptr, ptr %3, align 8, !tbaa !4
  %6 = getelementptr inbounds nuw %struct.bipbuf_t, ptr %5, i32 0, i32 3
  store i32 0, ptr %6, align 8, !tbaa !8
  %7 = load ptr, ptr %3, align 8, !tbaa !4
  %8 = getelementptr inbounds nuw %struct.bipbuf_t, ptr %7, i32 0, i32 2
  store i32 0, ptr %8, align 4, !tbaa !8
  %9 = load ptr, ptr %3, align 8, !tbaa !4
  %10 = getelementptr inbounds nuw %struct.bipbuf_t, ptr %9, i32 0, i32 1
  store i32 0, ptr %10, align 8, !tbaa !8
  %11 = load i32, ptr %4, align 4, !tbaa !8
  %12 = zext i32 %11 to i64
  %13 = load ptr, ptr %3, align 8, !tbaa !4
  %14 = getelementptr inbounds nuw %struct.bipbuf_t, ptr %13, i32 0, i32 0
  store i64 %12, ptr %14, align 8, !tbaa !10
  %15 = load ptr, ptr %3, align 8, !tbaa !4
  %16 = getelementptr inbounds nuw %struct.bipbuf_t, ptr %15, i32 0, i32 4
  store i32 0, ptr %16, align 4, !tbaa !8
  ret void
}