; Function Attrs: mustprogress nofree norecurse nosync nounwind willreturn memory(argmem: write) uwtable
define dso_local void @bipbuf_init(ptr noundef writeonly captures(none) initializes((0, 24)) %0, i32 noundef %1) local_unnamed_addr #1 {
  %3 = getelementptr inbounds nuw i8, ptr %0, i64 16
  store i32 0, ptr %3, align 8, !tbaa !4
  %4 = getelementptr inbounds nuw i8, ptr %0, i64 12
  store i32 0, ptr %4, align 4, !tbaa !4
  %5 = getelementptr inbounds nuw i8, ptr %0, i64 8
  store i32 0, ptr %5, align 8, !tbaa !4
  %6 = zext i32 %1 to i64
  store i64 %6, ptr %0, align 8, !tbaa !8
  %7 = getelementptr inbounds nuw i8, ptr %0, i64 20
  store i32 0, ptr %7, align 4, !tbaa !4
  ret void
}